target datalayout = "e-m:e-p270:32:32-p271:32:32-p272:64:64-i64:64-i128:128-f80:128-n8:16:32:64-S128"
target triple = "x86_64-pc-linux-gnu"

; Function Attrs: inlinehint mustprogress nounwind uwtable
define internal noundef signext i8 @_ZL9U_SUCCESS10UErrorCode(i32 noundef %0) #2 {
  %2 = alloca i32, align 4
  store i32 %0, ptr %2, align 4, !tbaa !76
  %3 = load i32, ptr %2, align 4, !tbaa !76
  %4 = icmp sle i32 %3, 0
  %5 = zext i1 %4 to i8
  ret i8 %5
}

; Function Attrs: mustprogress uwtable
define i32 @u_terminateWChars_77(ptr noundef %0, i32 noundef %1, i32 noundef %2, ptr noundef %3) #0 {
  %5 = alloca ptr, align 8
  %6 = alloca i32, align 4
  %7 = alloca i32, align 4
  %8 = alloca ptr, align 8
  store ptr %0, ptr %5, align 8, !tbaa !78
  store i32 %1, ptr %6, align 4, !tbaa !8
  store i32 %2, ptr %7, align 4, !tbaa !8
  store ptr %3, ptr %8, align 8, !tbaa !68
  br label %9

9:                                                ; preds = %4
  %10 = load ptr, ptr %8, align 8, !tbaa !68
  %11 = icmp ne ptr %10, null
  br i1 %11, label %12, label %47

12:                                               ; preds = %9
  %13 = load ptr, ptr %8, align 8, !tbaa !68
  %14 = load i32, ptr %13, align 4, !tbaa !76
  %15 = call noundef signext i8 @_ZL9U_SUCCESS10UErrorCode(i32 noundef %14)
  %16 = icmp ne i8 %15, 0
  br i1 %16, label %17, label %47

17:                                               ; preds = %12
  %18 = load i32, ptr %7, align 4, !tbaa !8
  %19 = icmp slt i32 %18, 0
  br i1 %19, label %20, label %21

20:                                               ; preds = %17
  br label %46

21:                                               ; preds = %17
  %22 = load i32, ptr %7, align 4, !tbaa !8
  %23 = load i32, ptr %6, align 4, !tbaa !8
  %24 = icmp slt i32 %22, %23
  br i1 %24, label %25, label %36

25:                                               ; preds = %21
  %26 = load ptr, ptr %5, align 8, !tbaa !78
  %27 = load i32, ptr %7, align 4, !tbaa !8
  %28 = sext i32 %27 to i64
  %29 = getelementptr inbounds i32, ptr %26, i64 %28
  store i32 0, ptr %29, align 4, !tbaa !80
  %30 = load ptr, ptr %8, align 8, !tbaa !68
  %31 = load i32, ptr %30, align 4, !tbaa !76
  %32 = icmp eq i32 %31, -124
  br i1 %32, label %33, label %35

33:                                               ; preds = %25
  %34 = load ptr, ptr %8, align 8, !tbaa !68
  store i32 0, ptr %34, align 4, !tbaa !76
  br label %35

35:                                               ; preds = %33, %25
  br label %45

36:                                               ; preds = %21
  %37 = load i32, ptr %7, align 4, !tbaa !8
  %38 = load i32, ptr %6, align 4, !tbaa !8
  %39 = icmp eq i32 %37, %38
  br i1 %39, label %40, label %42

40:                                               ; preds = %36
  %41 = load ptr, ptr %8, align 8, !tbaa !68
  store i32 -124, ptr %41, align 4, !tbaa !76
  br label %44

42:                                               ; preds = %36
  %43 = load ptr, ptr %8, align 8, !tbaa !68
  store i32 15, ptr %43, align 4, !tbaa !76
  br label %44

44:                                               ; preds = %42, %40
  br label %45

45:                                               ; preds = %44, %35
  br label %46

46:                                               ; preds = %45, %20
  br label %47

47:                                               ; preds = %46, %12, %9
  br label %48

48:                                               ; preds = %47
  %49 = load i32, ptr %7, align 4, !tbaa !8
  ret i32 %49
}