; Function Attrs: mustprogress nofree norecurse nosync nounwind willreturn memory(argmem: readwrite) uwtable
define noundef i32 @u_terminateWChars_77(ptr noundef writeonly captures(none) %0, i32 noundef %1, i32 noundef returned %2, ptr noundef %3) local_unnamed_addr #7 {
  %.not = icmp eq ptr %3, null
  br i1 %.not, label %17, label %5

5:                                                ; preds = %4
  %6 = load i32, ptr %3, align 4, !tbaa !64
  %7 = icmp sgt i32 %6, 0
  %8 = icmp slt i32 %2, 0
  %or.cond = or i1 %8, %7
  br i1 %or.cond, label %17, label %9

9:                                                ; preds = %5
  %10 = icmp slt i32 %2, %1
  br i1 %10, label %11, label %15

11:                                               ; preds = %9
  %12 = zext nneg i32 %2 to i64
  %13 = getelementptr inbounds nuw i32, ptr %0, i64 %12
  store i32 0, ptr %13, align 4, !tbaa !66
  %14 = icmp eq i32 %6, -124
  br i1 %14, label %.sink.split, label %17

15:                                               ; preds = %9
  %16 = icmp eq i32 %2, %1
  %. = select i1 %16, i32 -124, i32 15
  br label %.sink.split

.sink.split:                                      ; preds = %15, %11
  %.sink = phi i32 [ 0, %11 ], [ %., %15 ]
  store i32 %.sink, ptr %3, align 4, !tbaa !64
  br label %17

17:                                               ; preds = %.sink.split, %4, %5, %11
  ret i32 %2
}